target datalayout = "e-m:e-p270:32:32-p271:32:32-p272:64:64-i64:64-i128:128-f80:128-n8:16:32:64-S128"
target triple = "x86_64-pc-linux-gnu"

%struct.mbedtls_ecp_point = type { %struct.mbedtls_mpi, %struct.mbedtls_mpi, %struct.mbedtls_mpi }
%struct.mbedtls_mpi = type { ptr, i16, i16 }
%struct.mbedtls_ecp_group = type { i32, %struct.mbedtls_mpi, %struct.mbedtls_mpi, %struct.mbedtls_mpi, %struct.mbedtls_ecp_point, %struct.mbedtls_mpi, i64, i64, i32, ptr, ptr, ptr, ptr, ptr, i64 }

; Function Attrs: nounwind uwtable
define internal i32 @derive_mpi(ptr noundef %0, ptr noundef %1, ptr noundef %2, i64 noundef %3) #0 {
  %5 = alloca ptr, align 8
  %6 = alloca ptr, align 8
  %7 = alloca ptr, align 8
  %8 = alloca i64, align 8
  %9 = alloca i32, align 4
  %10 = alloca i64, align 8
  %11 = alloca i64, align 8
  store ptr %0, ptr %5, align 8, !tbaa !7
  store ptr %1, ptr %6, align 8, !tbaa !10
  store ptr %2, ptr %7, align 8, !tbaa !12
  store i64 %3, ptr %8, align 8, !tbaa !14
  call void @llvm.lifetime.start.p0(i64 4, ptr %9) #6
  store i32 -110, ptr %9, align 4, !tbaa !3
  call void @llvm.lifetime.start.p0(i64 8, ptr %10) #6
  %12 = load ptr, ptr %5, align 8, !tbaa !7
  %13 = getelementptr inbounds nuw %struct.mbedtls_ecp_group, ptr %12, i32 0, i32 7
  %14 = load i64, ptr %13, align 8, !tbaa !30
  %15 = add i64 %14, 7
  %16 = udiv i64 %15, 8
  store i64 %16, ptr %10, align 8, !tbaa !14
  call void @llvm.lifetime.start.p0(i64 8, ptr %11) #6
  %17 = load i64, ptr %8, align 8, !tbaa !14
  %18 = load i64, ptr %10, align 8, !tbaa !14
  %19 = icmp ugt i64 %17, %18
  br i1 %19, label %20, label %22

20:                                               ; preds = %4
  %21 = load i64, ptr %10, align 8, !tbaa !14
  br label %24

22:                                               ; preds = %4
  %23 = load i64, ptr %8, align 8, !tbaa !14
  br label %24

24:                                               ; preds = %22, %20
  %25 = phi i64 [ %21, %20 ], [ %23, %22 ]
  store i64 %25, ptr %11, align 8, !tbaa !14
  br label %26

26:                                               ; preds = %24
  %27 = load ptr, ptr %6, align 8, !tbaa !10
  %28 = load ptr, ptr %7, align 8, !tbaa !12
  %29 = load i64, ptr %11, align 8, !tbaa !14
  %30 = call i32 @mbedtls_mpi_read_binary(ptr noundef %27, ptr noundef %28, i64 noundef %29)
  store i32 %30, ptr %9, align 4, !tbaa !3
  %31 = icmp ne i32 %30, 0
  br i1 %31, label %32, label %33

32:                                               ; preds = %26
  br label %76

33:                                               ; preds = %26
  br label %34

34:                                               ; preds = %33
  br label %35

35:                                               ; preds = %34
  %36 = load i64, ptr %11, align 8, !tbaa !14
  %37 = mul i64 %36, 8
  %38 = load ptr, ptr %5, align 8, !tbaa !7
  %39 = getelementptr inbounds nuw %struct.mbedtls_ecp_group, ptr %38, i32 0, i32 7
  %40 = load i64, ptr %39, align 8, !tbaa !30
  %41 = icmp ugt i64 %37, %40
  br i1 %41, label %42, label %57

42:                                               ; preds = %35
  br label %43

43:                                               ; preds = %42
  %44 = load ptr, ptr %6, align 8, !tbaa !10
  %45 = load i64, ptr %11, align 8, !tbaa !14
  %46 = mul i64 %45, 8
  %47 = load ptr, ptr %5, align 8, !tbaa !7
  %48 = getelementptr inbounds nuw %struct.mbedtls_ecp_group, ptr %47, i32 0, i32 7
  %49 = load i64, ptr %48, align 8, !tbaa !30
  %50 = sub i64 %46, %49
  %51 = call i32 @mbedtls_mpi_shift_r(ptr noundef %44, i64 noundef %50)
  store i32 %51, ptr %9, align 4, !tbaa !3
  %52 = icmp ne i32 %51, 0
  br i1 %52, label %53, label %54

53:                                               ; preds = %43
  br label %76

54:                                               ; preds = %43
  br label %55

55:                                               ; preds = %54
  br label %56

56:                                               ; preds = %55
  br label %57

57:                                               ; preds = %56, %35
  %58 = load ptr, ptr %6, align 8, !tbaa !10
  %59 = load ptr, ptr %5, align 8, !tbaa !7
  %60 = getelementptr inbounds nuw %struct.mbedtls_ecp_group, ptr %59, i32 0, i32 5
  %61 = call i32 @mbedtls_mpi_cmp_mpi(ptr noundef %58, ptr noundef %60)
  %62 = icmp sge i32 %61, 0
  br i1 %62, label %63, label %75

63:                                               ; preds = %57
  br label %64

64:                                               ; preds = %63
  %65 = load ptr, ptr %6, align 8, !tbaa !10
  %66 = load ptr, ptr %6, align 8, !tbaa !10
  %67 = load ptr, ptr %5, align 8, !tbaa !7
  %68 = getelementptr inbounds nuw %struct.mbedtls_ecp_group, ptr %67, i32 0, i32 5
  %69 = call i32 @mbedtls_mpi_sub_mpi(ptr noundef %65, ptr noundef %66, ptr noundef %68)
  store i32 %69, ptr %9, align 4, !tbaa !3
  %70 = icmp ne i32 %69, 0
  br i1 %70, label %71, label %72

71:                                               ; preds = %64
  br label %76

72:                                               ; preds = %64
  br label %73

73:                                               ; preds = %72
  br label %74

74:                                               ; preds = %73
  br label %75

75:                                               ; preds = %74, %57
  br label %76

76:                                               ; preds = %75, %71, %53, %32
  %77 = load i32, ptr %9, align 4, !tbaa !3
  call void @llvm.lifetime.end.p0(i64 8, ptr %11) #6
  call void @llvm.lifetime.end.p0(i64 8, ptr %10) #6
  call void @llvm.lifetime.end.p0(i64 4, ptr %9) #6
  ret i32 %77
}

; Function Attrs: nounwind uwtable
define hidden i32 @mbedtls_ecdsa_can_do(i32 noundef %0) #0 {
  %2 = alloca i32, align 4
  %3 = alloca i32, align 4
  store i32 %0, ptr %3, align 4, !tbaa !3
  %4 = load i32, ptr %3, align 4, !tbaa !3
  switch i32 %4, label %7 [
    i32 9, label %5
    i32 13, label %6
  ]

5:                                                ; preds = %1
  store i32 0, ptr %2, align 4
  br label %8

6:                                                ; preds = %1
  store i32 0, ptr %2, align 4
  br label %8

7:                                                ; preds = %1
  store i32 1, ptr %2, align 4
  br label %8

8:                                                ; preds = %7, %6, %5
  %9 = load i32, ptr %2, align 4
  ret i32 %9
}

; Function Attrs: nounwind uwtable
define hidden i32 @mbedtls_ecdsa_verify_restartable(ptr noundef %0, ptr noundef %1, i64 noundef %2, ptr noundef %3, ptr noundef %4, ptr noundef %5, ptr noundef %6) #0 {
  %8 = alloca i32, align 4
  %9 = alloca ptr, align 8
  %10 = alloca ptr, align 8
  %11 = alloca i64, align 8
  %12 = alloca ptr, align 8
  %13 = alloca ptr, align 8
  %14 = alloca ptr, align 8
  %15 = alloca ptr, align 8
  %16 = alloca i32, align 4
  %17 = alloca %struct.mbedtls_mpi, align 8
  %18 = alloca %struct.mbedtls_mpi, align 8
  %19 = alloca %struct.mbedtls_mpi, align 8
  %20 = alloca %struct.mbedtls_mpi, align 8
  %21 = alloca %struct.mbedtls_ecp_point, align 8
  %22 = alloca ptr, align 8
  %23 = alloca ptr, align 8
  %24 = alloca i32, align 4
  store ptr %0, ptr %9, align 8, !tbaa !7
  store ptr %1, ptr %10, align 8, !tbaa !12
  store i64 %2, ptr %11, align 8, !tbaa !14
  store ptr %3, ptr %12, align 8, !tbaa !35
  store ptr %4, ptr %13, align 8, !tbaa !10
  store ptr %5, ptr %14, align 8, !tbaa !10
  store ptr %6, ptr %15, align 8, !tbaa !16
  call void @llvm.lifetime.start.p0(i64 4, ptr %16) #6
  store i32 -110, ptr %16, align 4, !tbaa !3
  call void @llvm.lifetime.start.p0(i64 16, ptr %17) #6
  call void @llvm.lifetime.start.p0(i64 16, ptr %18) #6
  call void @llvm.lifetime.start.p0(i64 16, ptr %19) #6
  call void @llvm.lifetime.start.p0(i64 16, ptr %20) #6
  call void @llvm.lifetime.start.p0(i64 48, ptr %21) #6
  call void @llvm.lifetime.start.p0(i64 8, ptr %22) #6
  store ptr %19, ptr %22, align 8, !tbaa !10
  call void @llvm.lifetime.start.p0(i64 8, ptr %23) #6
  store ptr %20, ptr %23, align 8, !tbaa !10
  call void @mbedtls_ecp_point_init(ptr noundef %21)
  call void @mbedtls_mpi_init(ptr noundef %17)
  call void @mbedtls_mpi_init(ptr noundef %18)
  call void @mbedtls_mpi_init(ptr noundef %19)
  call void @mbedtls_mpi_init(ptr noundef %20)
  %25 = load ptr, ptr %9, align 8, !tbaa !7
  %26 = getelementptr inbounds nuw %struct.mbedtls_ecp_group, ptr %25, i32 0, i32 0
  %27 = load i32, ptr %26, align 8, !tbaa !19
  %28 = call i32 @mbedtls_ecdsa_can_do(i32 noundef %27)
  %29 = icmp ne i32 %28, 0
  br i1 %29, label %30, label %36

30:                                               ; preds = %7
  %31 = load ptr, ptr %9, align 8, !tbaa !7
  %32 = getelementptr inbounds nuw %struct.mbedtls_ecp_group, ptr %31, i32 0, i32 5
  %33 = getelementptr inbounds nuw %struct.mbedtls_mpi, ptr %32, i32 0, i32 0
  %34 = load ptr, ptr %33, align 8, !tbaa !26
  %35 = icmp eq ptr %34, null
  br i1 %35, label %36, label %37

36:                                               ; preds = %30, %7
  store i32 -20352, ptr %8, align 4
  store i32 1, ptr %24, align 4
  br label %154

37:                                               ; preds = %30
  %38 = load ptr, ptr %13, align 8, !tbaa !10
  %39 = call i32 @mbedtls_mpi_cmp_int(ptr noundef %38, i64 noundef 1)
  %40 = icmp slt i32 %39, 0
  br i1 %40, label %57, label %41

41:                                               ; preds = %37
  %42 = load ptr, ptr %13, align 8, !tbaa !10
  %43 = load ptr, ptr %9, align 8, !tbaa !7
  %44 = getelementptr inbounds nuw %struct.mbedtls_ecp_group, ptr %43, i32 0, i32 5
  %45 = call i32 @mbedtls_mpi_cmp_mpi(ptr noundef %42, ptr noundef %44)
  %46 = icmp sge i32 %45, 0
  br i1 %46, label %57, label %47

47:                                               ; preds = %41
  %48 = load ptr, ptr %14, align 8, !tbaa !10
  %49 = call i32 @mbedtls_mpi_cmp_int(ptr noundef %48, i64 noundef 1)
  %50 = icmp slt i32 %49, 0
  br i1 %50, label %57, label %51

51:                                               ; preds = %47
  %52 = load ptr, ptr %14, align 8, !tbaa !10
  %53 = load ptr, ptr %9, align 8, !tbaa !7
  %54 = getelementptr inbounds nuw %struct.mbedtls_ecp_group, ptr %53, i32 0, i32 5
  %55 = call i32 @mbedtls_mpi_cmp_mpi(ptr noundef %52, ptr noundef %54)
  %56 = icmp sge i32 %55, 0
  br i1 %56, label %57, label %58

57:                                               ; preds = %51, %47, %41, %37
  store i32 -19968, ptr %16, align 4, !tbaa !3
  br label %152

58:                                               ; preds = %51
  br label %59

59:                                               ; preds = %58
  %60 = load ptr, ptr %9, align 8, !tbaa !7
  %61 = load ptr, ptr %10, align 8, !tbaa !12
  %62 = load i64, ptr %11, align 8, !tbaa !14
  %63 = call i32 @derive_mpi(ptr noundef %60, ptr noundef %17, ptr noundef %61, i64 noundef %62)
  store i32 %63, ptr %16, align 4, !tbaa !3
  %64 = icmp ne i32 %63, 0
  br i1 %64, label %65, label %66

65:                                               ; preds = %59
  br label %152

66:                                               ; preds = %59
  br label %67

67:                                               ; preds = %66
  br label %68

68:                                               ; preds = %67
  br label %69

69:                                               ; preds = %68
  %70 = load ptr, ptr %14, align 8, !tbaa !10
  %71 = load ptr, ptr %9, align 8, !tbaa !7
  %72 = getelementptr inbounds nuw %struct.mbedtls_ecp_group, ptr %71, i32 0, i32 5
  %73 = call i32 @mbedtls_mpi_inv_mod(ptr noundef %18, ptr noundef %70, ptr noundef %72)
  store i32 %73, ptr %16, align 4, !tbaa !3
  %74 = icmp ne i32 %73, 0
  br i1 %74, label %75, label %76

75:                                               ; preds = %69
  br label %152

76:                                               ; preds = %69
  br label %77

77:                                               ; preds = %76
  br label %78

78:                                               ; preds = %77
  br label %79

79:                                               ; preds = %78
  %80 = load ptr, ptr %22, align 8, !tbaa !10
  %81 = call i32 @mbedtls_mpi_mul_mpi(ptr noundef %80, ptr noundef %17, ptr noundef %18)
  store i32 %81, ptr %16, align 4, !tbaa !3
  %82 = icmp ne i32 %81, 0
  br i1 %82, label %83, label %84

83:                                               ; preds = %79
  br label %152

84:                                               ; preds = %79
  br label %85

85:                                               ; preds = %84
  br label %86

86:                                               ; preds = %85
  br label %87

87:                                               ; preds = %86
  %88 = load ptr, ptr %22, align 8, !tbaa !10
  %89 = load ptr, ptr %22, align 8, !tbaa !10
  %90 = load ptr, ptr %9, align 8, !tbaa !7
  %91 = getelementptr inbounds nuw %struct.mbedtls_ecp_group, ptr %90, i32 0, i32 5
  %92 = call i32 @mbedtls_mpi_mod_mpi(ptr noundef %88, ptr noundef %89, ptr noundef %91)
  store i32 %92, ptr %16, align 4, !tbaa !3
  %93 = icmp ne i32 %92, 0
  br i1 %93, label %94, label %95

94:                                               ; preds = %87
  br label %152

95:                                               ; preds = %87
  br label %96

96:                                               ; preds = %95
  br label %97

97:                                               ; preds = %96
  br label %98

98:                                               ; preds = %97
  %99 = load ptr, ptr %23, align 8, !tbaa !10
  %100 = load ptr, ptr %13, align 8, !tbaa !10
  %101 = call i32 @mbedtls_mpi_mul_mpi(ptr noundef %99, ptr noundef %100, ptr noundef %18)
  store i32 %101, ptr %16, align 4, !tbaa !3
  %102 = icmp ne i32 %101, 0
  br i1 %102, label %103, label %104

103:                                              ; preds = %98
  br label %152

104:                                              ; preds = %98
  br label %105

105:                                              ; preds = %104
  br label %106

106:                                              ; preds = %105
  br label %107

107:                                              ; preds = %106
  %108 = load ptr, ptr %23, align 8, !tbaa !10
  %109 = load ptr, ptr %23, align 8, !tbaa !10
  %110 = load ptr, ptr %9, align 8, !tbaa !7
  %111 = getelementptr inbounds nuw %struct.mbedtls_ecp_group, ptr %110, i32 0, i32 5
  %112 = call i32 @mbedtls_mpi_mod_mpi(ptr noundef %108, ptr noundef %109, ptr noundef %111)
  store i32 %112, ptr %16, align 4, !tbaa !3
  %113 = icmp ne i32 %112, 0
  br i1 %113, label %114, label %115

114:                                              ; preds = %107
  br label %152

115:                                              ; preds = %107
  br label %116

116:                                              ; preds = %115
  br label %117

117:                                              ; preds = %116
  br label %118

118:                                              ; preds = %117
  %119 = load ptr, ptr %9, align 8, !tbaa !7
  %120 = load ptr, ptr %22, align 8, !tbaa !10
  %121 = load ptr, ptr %9, align 8, !tbaa !7
  %122 = getelementptr inbounds nuw %struct.mbedtls_ecp_group, ptr %121, i32 0, i32 4
  %123 = load ptr, ptr %23, align 8, !tbaa !10
  %124 = load ptr, ptr %12, align 8, !tbaa !35
  %125 = call i32 @mbedtls_ecp_muladd_restartable(ptr noundef %119, ptr noundef %21, ptr noundef %120, ptr noundef %122, ptr noundef %123, ptr noundef %124, ptr noundef null)
  store i32 %125, ptr %16, align 4, !tbaa !3
  %126 = icmp ne i32 %125, 0
  br i1 %126, label %127, label %128

127:                                              ; preds = %118
  br label %152

128:                                              ; preds = %118
  br label %129

129:                                              ; preds = %128
  br label %130

130:                                              ; preds = %129
  %131 = call i32 @mbedtls_ecp_is_zero(ptr noundef %21)
  %132 = icmp ne i32 %131, 0
  br i1 %132, label %133, label %134

133:                                              ; preds = %130
  store i32 -19968, ptr %16, align 4, !tbaa !3
  br label %152

134:                                              ; preds = %130
  br label %135

135:                                              ; preds = %134
  %136 = getelementptr inbounds nuw %struct.mbedtls_ecp_point, ptr %21, i32 0, i32 0
  %137 = getelementptr inbounds nuw %struct.mbedtls_ecp_point, ptr %21, i32 0, i32 0
  %138 = load ptr, ptr %9, align 8, !tbaa !7
  %139 = getelementptr inbounds nuw %struct.mbedtls_ecp_group, ptr %138, i32 0, i32 5
  %140 = call i32 @mbedtls_mpi_mod_mpi(ptr noundef %136, ptr noundef %137, ptr noundef %139)
  store i32 %140, ptr %16, align 4, !tbaa !3
  %141 = icmp ne i32 %140, 0
  br i1 %141, label %142, label %143

142:                                              ; preds = %135
  br label %152

143:                                              ; preds = %135
  br label %144

144:                                              ; preds = %143
  br label %145

145:                                              ; preds = %144
  %146 = getelementptr inbounds nuw %struct.mbedtls_ecp_point, ptr %21, i32 0, i32 0
  %147 = load ptr, ptr %13, align 8, !tbaa !10
  %148 = call i32 @mbedtls_mpi_cmp_mpi(ptr noundef %146, ptr noundef %147)
  %149 = icmp ne i32 %148, 0
  br i1 %149, label %150, label %151

150:                                              ; preds = %145
  store i32 -19968, ptr %16, align 4, !tbaa !3
  br label %152

151:                                              ; preds = %145
  br label %152

152:                                              ; preds = %151, %150, %142, %133, %127, %114, %103, %94, %83, %75, %65, %57
  call void @mbedtls_ecp_point_free(ptr noundef %21)
  call void @mbedtls_mpi_free(ptr noundef %17)
  call void @mbedtls_mpi_free(ptr noundef %18)
  call void @mbedtls_mpi_free(ptr noundef %19)
  call void @mbedtls_mpi_free(ptr noundef %20)
  %153 = load i32, ptr %16, align 4, !tbaa !3
  store i32 %153, ptr %8, align 4
  store i32 1, ptr %24, align 4
  br label %154

154:                                              ; preds = %152, %36
  call void @llvm.lifetime.end.p0(i64 8, ptr %23) #6
  call void @llvm.lifetime.end.p0(i64 8, ptr %22) #6
  call void @llvm.lifetime.end.p0(i64 48, ptr %21) #6
  call void @llvm.lifetime.end.p0(i64 16, ptr %20) #6
  call void @llvm.lifetime.end.p0(i64 16, ptr %19) #6
  call void @llvm.lifetime.end.p0(i64 16, ptr %18) #6
  call void @llvm.lifetime.end.p0(i64 16, ptr %17) #6
  call void @llvm.lifetime.end.p0(i64 4, ptr %16) #6
  %155 = load i32, ptr %8, align 4
  ret i32 %155
}