; Function Attrs: nounwind uwtable
define hidden i32 @mbedtls_ecdsa_verify_restartable(ptr noundef %0, ptr noundef %1, i64 noundef %2, ptr noundef %3, ptr noundef %4, ptr noundef %5, ptr readnone captures(none) %6) local_unnamed_addr #1 {
  %8 = alloca %struct.mbedtls_mpi, align 8
  %9 = alloca %struct.mbedtls_mpi, align 8
  %10 = alloca %struct.mbedtls_mpi, align 8
  %11 = alloca %struct.mbedtls_mpi, align 8
  %12 = alloca %struct.mbedtls_ecp_point, align 8
  call void @llvm.lifetime.start.p0(i64 16, ptr nonnull %8) #7
  call void @llvm.lifetime.start.p0(i64 16, ptr nonnull %9) #7
  call void @llvm.lifetime.start.p0(i64 16, ptr nonnull %10) #7
  call void @llvm.lifetime.start.p0(i64 16, ptr nonnull %11) #7
  call void @llvm.lifetime.start.p0(i64 48, ptr nonnull %12) #7
  call void @mbedtls_ecp_point_init(ptr noundef nonnull %12) #7
  call void @mbedtls_mpi_init(ptr noundef nonnull %8) #7
  call void @mbedtls_mpi_init(ptr noundef nonnull %9) #7
  call void @mbedtls_mpi_init(ptr noundef nonnull %10) #7
  call void @mbedtls_mpi_init(ptr noundef nonnull %11) #7
  %13 = load i32, ptr %0, align 8, !tbaa !3
  %14 = add i32 %13, -9
  %switch.and.i = and i32 %14, -5
  %switch.selectcmp.i.not = icmp eq i32 %switch.and.i, 0
  br i1 %switch.selectcmp.i.not, label %67, label %15

15:                                               ; preds = %7
  %16 = getelementptr inbounds nuw i8, ptr %0, i64 104
  %17 = load ptr, ptr %16, align 8, !tbaa !15
  %18 = icmp eq ptr %17, null
  br i1 %18, label %67, label %19

19:                                               ; preds = %15
  %20 = call i32 @mbedtls_mpi_cmp_int(ptr noundef %4, i64 noundef 1) #7
  %21 = icmp slt i32 %20, 0
  br i1 %21, label %derive_mpi.exit.thread, label %22

22:                                               ; preds = %19
  %23 = call i32 @mbedtls_mpi_cmp_mpi(ptr noundef %4, ptr noundef nonnull %16) #7
  %24 = icmp sgt i32 %23, -1
  br i1 %24, label %derive_mpi.exit.thread, label %25

25:                                               ; preds = %22
  %26 = call i32 @mbedtls_mpi_cmp_int(ptr noundef %5, i64 noundef 1) #7
  %27 = icmp slt i32 %26, 0
  br i1 %27, label %derive_mpi.exit.thread, label %28

28:                                               ; preds = %25
  %29 = call i32 @mbedtls_mpi_cmp_mpi(ptr noundef %5, ptr noundef nonnull %16) #7
  %30 = icmp sgt i32 %29, -1
  br i1 %30, label %derive_mpi.exit.thread, label %31

31:                                               ; preds = %28
  %32 = getelementptr inbounds nuw i8, ptr %0, i64 128
  %33 = load i64, ptr %32, align 8, !tbaa !19
  %34 = add i64 %33, 7
  %35 = lshr i64 %34, 3
  %36 = call i64 @llvm.umin.i64(i64 %2, i64 %35)
  %37 = call i32 @mbedtls_mpi_read_binary(ptr noundef nonnull %8, ptr noundef %1, i64 noundef %36) #7
  %.not.i = icmp eq i32 %37, 0
  br i1 %.not.i, label %38, label %derive_mpi.exit.thread

38:                                               ; preds = %31
  %39 = shl nuw i64 %36, 3
  %40 = load i64, ptr %32, align 8, !tbaa !19
  %41 = icmp ugt i64 %39, %40
  br i1 %41, label %42, label %45

42:                                               ; preds = %38
  %43 = sub nuw i64 %39, %40
  %44 = call i32 @mbedtls_mpi_shift_r(ptr noundef nonnull %8, i64 noundef %43) #7
  %.not24.i = icmp eq i32 %44, 0
  br i1 %.not24.i, label %45, label %derive_mpi.exit.thread

45:                                               ; preds = %42, %38
  %46 = call i32 @mbedtls_mpi_cmp_mpi(ptr noundef nonnull %8, ptr noundef nonnull %16) #7
  %47 = icmp sgt i32 %46, -1
  br i1 %47, label %derive_mpi.exit, label %derive_mpi.exit.thread51

derive_mpi.exit:                                  ; preds = %45
  %48 = call i32 @mbedtls_mpi_sub_mpi(ptr noundef nonnull %8, ptr noundef nonnull %8, ptr noundef nonnull %16) #7
  %.not39 = icmp eq i32 %48, 0
  br i1 %.not39, label %derive_mpi.exit.thread51, label %derive_mpi.exit.thread

derive_mpi.exit.thread51:                         ; preds = %45, %derive_mpi.exit
  %49 = call i32 @mbedtls_mpi_inv_mod(ptr noundef nonnull %9, ptr noundef %5, ptr noundef nonnull %16) #7
  %.not40 = icmp eq i32 %49, 0
  br i1 %.not40, label %50, label %derive_mpi.exit.thread

50:                                               ; preds = %derive_mpi.exit.thread51
  %51 = call i32 @mbedtls_mpi_mul_mpi(ptr noundef nonnull %10, ptr noundef nonnull %8, ptr noundef nonnull %9) #7
  %.not41 = icmp eq i32 %51, 0
  br i1 %.not41, label %52, label %derive_mpi.exit.thread

52:                                               ; preds = %50
  %53 = call i32 @mbedtls_mpi_mod_mpi(ptr noundef nonnull %10, ptr noundef nonnull %10, ptr noundef nonnull %16) #7
  %.not42 = icmp eq i32 %53, 0
  br i1 %.not42, label %54, label %derive_mpi.exit.thread

54:                                               ; preds = %52
  %55 = call i32 @mbedtls_mpi_mul_mpi(ptr noundef nonnull %11, ptr noundef %4, ptr noundef nonnull %9) #7
  %.not43 = icmp eq i32 %55, 0
  br i1 %.not43, label %56, label %derive_mpi.exit.thread

56:                                               ; preds = %54
  %57 = call i32 @mbedtls_mpi_mod_mpi(ptr noundef nonnull %11, ptr noundef nonnull %11, ptr noundef nonnull %16) #7
  %.not44 = icmp eq i32 %57, 0
  br i1 %.not44, label %58, label %derive_mpi.exit.thread

58:                                               ; preds = %56
  %59 = getelementptr inbounds nuw i8, ptr %0, i64 56
  %60 = call i32 @mbedtls_ecp_muladd_restartable(ptr noundef nonnull %0, ptr noundef nonnull %12, ptr noundef nonnull %10, ptr noundef nonnull %59, ptr noundef nonnull %11, ptr noundef %3, ptr noundef null) #7
  %.not45 = icmp eq i32 %60, 0
  br i1 %.not45, label %61, label %derive_mpi.exit.thread

61:                                               ; preds = %58
  %62 = call i32 @mbedtls_ecp_is_zero(ptr noundef nonnull %12) #7
  %.not46 = icmp eq i32 %62, 0
  br i1 %.not46, label %63, label %derive_mpi.exit.thread

63:                                               ; preds = %61
  %64 = call i32 @mbedtls_mpi_mod_mpi(ptr noundef nonnull %12, ptr noundef nonnull %12, ptr noundef nonnull %16) #7
  %.not47 = icmp eq i32 %64, 0
  br i1 %.not47, label %65, label %derive_mpi.exit.thread

65:                                               ; preds = %63
  %66 = call i32 @mbedtls_mpi_cmp_mpi(ptr noundef nonnull %12, ptr noundef %4) #7
  %.not48 = icmp eq i32 %66, 0
  %spec.select = select i1 %.not48, i32 0, i32 -19968
  br label %derive_mpi.exit.thread

derive_mpi.exit.thread:                           ; preds = %42, %31, %65, %61, %19, %22, %25, %28, %63, %58, %56, %54, %52, %50, %derive_mpi.exit.thread51, %derive_mpi.exit
  %.030 = phi i32 [ %48, %derive_mpi.exit ], [ %49, %derive_mpi.exit.thread51 ], [ %51, %50 ], [ %53, %52 ], [ %55, %54 ], [ %57, %56 ], [ %60, %58 ], [ %64, %63 ], [ -19968, %28 ], [ -19968, %25 ], [ -19968, %22 ], [ -19968, %19 ], [ -19968, %61 ], [ %spec.select, %65 ], [ %44, %42 ], [ %37, %31 ]
  call void @mbedtls_ecp_point_free(ptr noundef nonnull %12) #7
  call void @mbedtls_mpi_free(ptr noundef nonnull %8) #7
  call void @mbedtls_mpi_free(ptr noundef nonnull %9) #7
  call void @mbedtls_mpi_free(ptr noundef nonnull %10) #7
  call void @mbedtls_mpi_free(ptr noundef nonnull %11) #7
  br label %67

67:                                               ; preds = %7, %15, %derive_mpi.exit.thread
  %.0 = phi i32 [ %.030, %derive_mpi.exit.thread ], [ -20352, %15 ], [ -20352, %7 ]
  call void @llvm.lifetime.end.p0(i64 48, ptr nonnull %12) #7
  call void @llvm.lifetime.end.p0(i64 16, ptr nonnull %11) #7
  call void @llvm.lifetime.end.p0(i64 16, ptr nonnull %10) #7
  call void @llvm.lifetime.end.p0(i64 16, ptr nonnull %9) #7
  call void @llvm.lifetime.end.p0(i64 16, ptr nonnull %8) #7
  ret i32 %.0
}